; ModuleID = 'source-C-CXX/32/2889.c'
source_filename = "source-C-CXX/32/2889.c"
target datalayout = "e-m:e-p270:32:32-p271:32:32-p272:64:64-i64:64-f80:128-n8:16:32:64-S128"
target triple = "x86_64-pc-linux-gnu"

@.str = private unnamed_addr constant [3 x i8] c"%d\00", align 1
@.str.1 = private unnamed_addr constant [3 x i8] c"%c\00", align 1

; Function Attrs: nofree nounwind sspstrong uwtable
define dso_local i32 @main() local_unnamed_addr #0 {
  %1 = alloca i32, align 4
  %2 = alloca [256 x i8], align 16
  %3 = bitcast i32* %1 to i8*
  call void @llvm.lifetime.start.p0i8(i64 4, i8* nonnull %3) #4
  %4 = getelementptr inbounds [256 x i8], [256 x i8]* %2, i64 0, i64 0
  call void @llvm.lifetime.start.p0i8(i64 256, i8* nonnull %4) #4
  %5 = call i32 (i8*, ...) @__isoc99_scanf(i8* getelementptr inbounds ([3 x i8], [3 x i8]* @.str, i64 0, i64 0), i32* nonnull %1)
  %6 = call i32 (i8*, ...) @__isoc99_scanf(i8* getelementptr inbounds ([3 x i8], [3 x i8]* @.str.1, i64 0, i64 0), i8* nonnull %4)
  %7 = load i32, i32* %1, align 4, !tbaa !5
  %8 = icmp sgt i32 %7, 0
  br i1 %8, label %9, label %29

9:                                                ; preds = %0, %24
  %10 = phi i32 [ %26, %24 ], [ 0, %0 ]
  br label %11

11:                                               ; preds = %9, %19
  %12 = phi i64 [ 0, %9 ], [ %22, %19 ]
  %13 = getelementptr inbounds [256 x i8], [256 x i8]* %2, i64 0, i64 %12
  %14 = call i32 (i8*, ...) @__isoc99_scanf(i8* getelementptr inbounds ([3 x i8], [3 x i8]* @.str.1, i64 0, i64 0), i8* nonnull %13)
  %15 = load i8, i8* %13, align 1, !tbaa !9
  switch i8 %15, label %24 [
    i8 65, label %19
    i8 84, label %16
    i8 67, label %17
    i8 71, label %18
  ]

16:                                               ; preds = %11
  br label %19

17:                                               ; preds = %11
  br label %19

18:                                               ; preds = %11
  br label %19

19:                                               ; preds = %11, %16, %18, %17
  %20 = phi i32 [ 65, %16 ], [ 67, %18 ], [ 71, %17 ], [ 84, %11 ]
  %21 = call i32 @putchar(i32 %20)
  %22 = add nuw nsw i64 %12, 1
  %23 = icmp eq i64 %22, 256
  br i1 %23, label %24, label %11, !llvm.loop !10

24:                                               ; preds = %11, %19
  %25 = call i32 @putchar(i32 10)
  %26 = add nuw nsw i32 %10, 1
  %27 = load i32, i32* %1, align 4, !tbaa !5
  %28 = icmp slt i32 %26, %27
  br i1 %28, label %9, label %29, !llvm.loop !12

29:                                               ; preds = %24, %0
  call void @llvm.lifetime.end.p0i8(i64 256, i8* nonnull %4) #4
  call void @llvm.lifetime.end.p0i8(i64 4, i8* nonnull %3) #4
  ret i32 0
}

; Function Attrs: argmemonly mustprogress nofree nosync nounwind willreturn
declare void @llvm.lifetime.start.p0i8(i64 immarg, i8* nocapture) #1

; Function Attrs: nofree nounwind
declare noundef i32 @__isoc99_scanf(i8* nocapture noundef readonly, ...) local_unnamed_addr #2

; Function Attrs: argmemonly mustprogress nofree nosync nounwind willreturn
declare void @llvm.lifetime.end.p0i8(i64 immarg, i8* nocapture) #1

; Function Attrs: nofree nounwind
declare noundef i32 @putchar(i32 noundef) local_unnamed_addr #3


!llvm.module.flags = !{!0, !1, !2, !3}
!llvm.ident = !{!4}

!0 = !{i32 1, !"wchar_size", i32 4}
!1 = !{i32 7, !"PIC Level", i32 2}
!2 = !{i32 7, !"PIE Level", i32 2}
!3 = !{i32 7, !"uwtable", i32 1}
!4 = !{!"clang version 13.0.0"}
!5 = !{!6, !6, i64 0}
!6 = !{!"int", !7, i64 0}
!7 = !{!"omnipotent char", !8, i64 0}
!8 = !{!"Simple C/C++ TBAA"}
!9 = !{!7, !7, i64 0}
!10 = distinct !{!10, !11}
!11 = !{!"llvm.loop.mustprogress"}
!12 = distinct !{!12, !11}
